target datalayout = "e-m:e-p270:32:32-p271:32:32-p272:64:64-i64:64-i128:128-f80:128-n8:16:32:64-S128"
target triple = "x86_64-pc-linux-gnu"

; Function Attrs: nounwind sspstrong uwtable
define internal i32 @utf32be_code_to_mbc(i32 noundef %0, ptr noundef %1, ptr noundef %2) #0 {
  %4 = alloca i32, align 4
  %5 = alloca ptr, align 8
  %6 = alloca ptr, align 8
  %7 = alloca ptr, align 8
  store i32 %0, ptr %4, align 4, !tbaa !16
  store ptr %1, ptr %5, align 8, !tbaa !13
  store ptr %2, ptr %6, align 8, !tbaa !14
  call void @llvm.lifetime.start.p0(i64 8, ptr %7) #3
  %8 = load ptr, ptr %5, align 8, !tbaa !13
  store ptr %8, ptr %7, align 8, !tbaa !13
  %9 = load i32, ptr %4, align 4, !tbaa !16
  %10 = and i32 %9, -16777216
  %11 = lshr i32 %10, 24
  %12 = trunc i32 %11 to i8
  %13 = load ptr, ptr %7, align 8, !tbaa !13
  %14 = getelementptr inbounds nuw i8, ptr %13, i32 1
  store ptr %14, ptr %7, align 8, !tbaa !13
  store i8 %12, ptr %13, align 1, !tbaa !17
  %15 = load i32, ptr %4, align 4, !tbaa !16
  %16 = and i32 %15, 16711680
  %17 = lshr i32 %16, 16
  %18 = trunc i32 %17 to i8
  %19 = load ptr, ptr %7, align 8, !tbaa !13
  %20 = getelementptr inbounds nuw i8, ptr %19, i32 1
  store ptr %20, ptr %7, align 8, !tbaa !13
  store i8 %18, ptr %19, align 1, !tbaa !17
  %21 = load i32, ptr %4, align 4, !tbaa !16
  %22 = and i32 %21, 65280
  %23 = lshr i32 %22, 8
  %24 = trunc i32 %23 to i8
  %25 = load ptr, ptr %7, align 8, !tbaa !13
  %26 = getelementptr inbounds nuw i8, ptr %25, i32 1
  store ptr %26, ptr %7, align 8, !tbaa !13
  store i8 %24, ptr %25, align 1, !tbaa !17
  %27 = load i32, ptr %4, align 4, !tbaa !16
  %28 = and i32 %27, 255
  %29 = trunc i32 %28 to i8
  %30 = load ptr, ptr %7, align 8, !tbaa !13
  %31 = getelementptr inbounds nuw i8, ptr %30, i32 1
  store ptr %31, ptr %7, align 8, !tbaa !13
  store i8 %29, ptr %30, align 1, !tbaa !17
  call void @llvm.lifetime.end.p0(i64 8, ptr %7) #3
  ret i32 4
}