; Function Attrs: mustprogress nofree norecurse nosync nounwind sspstrong willreturn memory(argmem: write) uwtable
define internal noundef i32 @utf32be_code_to_mbc(i32 noundef %0, ptr noundef writeonly captures(none) initializes((0, 4)) %1, ptr readnone captures(none) %2) #4 {
  %4 = lshr i32 %0, 24
  %5 = trunc nuw i32 %4 to i8
  %6 = getelementptr inbounds nuw i8, ptr %1, i64 1
  store i8 %5, ptr %1, align 1, !tbaa !6
  %7 = lshr i32 %0, 16
  %8 = trunc i32 %7 to i8
  %9 = getelementptr inbounds nuw i8, ptr %1, i64 2
  store i8 %8, ptr %6, align 1, !tbaa !6
  %10 = lshr i32 %0, 8
  %11 = trunc i32 %10 to i8
  %12 = getelementptr inbounds nuw i8, ptr %1, i64 3
  store i8 %11, ptr %9, align 1, !tbaa !6
  %13 = trunc i32 %0 to i8
  store i8 %13, ptr %12, align 1, !tbaa !6
  ret i32 4
}